target datalayout = "e-m:e-p270:32:32-p271:32:32-p272:64:64-i64:64-i128:128-f80:128-n8:16:32:64-S128"
target triple = "x86_64-unknown-linux-gnu"

%"class.std::function" = type { %"class.std::_Function_base", ptr }
%"class.std::_Function_base" = type { %"union.std::_Any_data", ptr }
%"union.std::_Any_data" = type { %"union.std::_Nocopy_types" }
%"union.std::_Nocopy_types" = type { { i64, i64 } }
%"class.QuantLib::(anonymous namespace)::VariableChange" = type { double, double, %"class.std::function", i64 }
%class.anon = type { ptr }

; Function Attrs: mustprogress nounwind uwtable
define linkonce_odr noundef zeroext i1 @_ZNKSt14_Function_base8_M_emptyEv(ptr noundef nonnull align 8 dereferenceable(24) %this) #1 comdat align 2 {
entry:
  %this.addr = alloca ptr, align 8
  store ptr %this, ptr %this.addr, align 8, !tbaa !3
  %this1 = load ptr, ptr %this.addr, align 8
  %_M_manager = getelementptr inbounds nuw %"class.std::_Function_base", ptr %this1, i32 0, i32 1
  %0 = load ptr, ptr %_M_manager, align 8, !tbaa !100
  %tobool = icmp ne ptr %0, null
  %lnot = xor i1 %tobool, true
  ret i1 %lnot
}

; Function Attrs: mustprogress uwtable
define linkonce_odr noundef double @_ZNKSt8functionIFddEEclEd(ptr noundef nonnull align 8 dereferenceable(32) %this, double noundef %__args) #2 comdat align 2 {
entry:
  %this.addr = alloca ptr, align 8
  %__args.addr = alloca double, align 8
  store ptr %this, ptr %this.addr, align 8, !tbaa !3
  store double %__args, ptr %__args.addr, align 8, !tbaa !18
  %this1 = load ptr, ptr %this.addr, align 8
  %call = call noundef zeroext i1 @_ZNKSt14_Function_base8_M_emptyEv(ptr noundef nonnull align 8 dereferenceable(24) %this1)
  br i1 %call, label %if.then, label %if.end

if.then:                                          ; preds = %entry
  call void @_ZSt25__throw_bad_function_callv() #25
  unreachable

if.end:                                           ; preds = %entry
  %_M_invoker = getelementptr inbounds nuw %"class.std::function", ptr %this1, i32 0, i32 1
  %0 = load ptr, ptr %_M_invoker, align 8, !tbaa !97
  %_M_functor = getelementptr inbounds nuw %"class.std::_Function_base", ptr %this1, i32 0, i32 0
  %call2 = call noundef double %0(ptr noundef nonnull align 8 dereferenceable(16) %_M_functor, ptr noundef nonnull align 8 dereferenceable(8) %__args.addr)
  ret double %call2
}

; Function Attrs: mustprogress uwtable
define internal noundef double @_ZNK8QuantLib12_GLOBAL__N_114VariableChange5valueEd(ptr noundef nonnull align 8 dereferenceable(56) %this, double noundef %x) #2 align 2 {
entry:
  %this.addr = alloca ptr, align 8
  %x.addr = alloca double, align 8
  %newVar = alloca double, align 8
  %temp = alloca double, align 8
  %i = alloca i64, align 8
  store ptr %this, ptr %this.addr, align 8, !tbaa !3
  store double %x, ptr %x.addr, align 8, !tbaa !18
  %this1 = load ptr, ptr %this.addr, align 8
  call void @llvm.lifetime.start.p0(i64 8, ptr %newVar) #18
  call void @llvm.lifetime.start.p0(i64 8, ptr %temp) #18
  %width_ = getelementptr inbounds nuw %"class.QuantLib::(anonymous namespace)::VariableChange", ptr %this1, i32 0, i32 1
  %0 = load double, ptr %width_, align 8, !tbaa !103
  store double %0, ptr %temp, align 8, !tbaa !18
  call void @llvm.lifetime.start.p0(i64 8, ptr %i) #18
  store i64 1, ptr %i, align 8, !tbaa !30
  br label %for.cond

for.cond:                                         ; preds = %for.inc, %entry
  %1 = load i64, ptr %i, align 8, !tbaa !30
  %k_ = getelementptr inbounds nuw %"class.QuantLib::(anonymous namespace)::VariableChange", ptr %this1, i32 0, i32 3
  %2 = load i64, ptr %k_, align 8, !tbaa !104
  %cmp = icmp ult i64 %1, %2
  br i1 %cmp, label %for.body, label %for.cond.cleanup

for.cond.cleanup:                                 ; preds = %for.cond
  call void @llvm.lifetime.end.p0(i64 8, ptr %i) #18
  br label %for.end

for.body:                                         ; preds = %for.cond
  %3 = load double, ptr %x.addr, align 8, !tbaa !18
  %4 = load double, ptr %temp, align 8, !tbaa !18
  %mul = fmul double %4, %3
  store double %mul, ptr %temp, align 8, !tbaa !18
  br label %for.inc

for.inc:                                          ; preds = %for.body
  %5 = load i64, ptr %i, align 8, !tbaa !30
  %inc = add i64 %5, 1
  store i64 %inc, ptr %i, align 8, !tbaa !30
  br label %for.cond, !llvm.loop !312

for.end:                                          ; preds = %for.cond.cleanup
  %a_ = getelementptr inbounds nuw %"class.QuantLib::(anonymous namespace)::VariableChange", ptr %this1, i32 0, i32 0
  %6 = load double, ptr %a_, align 8, !tbaa !101
  %7 = load double, ptr %x.addr, align 8, !tbaa !18
  %8 = load double, ptr %temp, align 8, !tbaa !18
  %9 = call double @llvm.fmuladd.f64(double %7, double %8, double %6)
  store double %9, ptr %newVar, align 8, !tbaa !18
  %f_ = getelementptr inbounds nuw %"class.QuantLib::(anonymous namespace)::VariableChange", ptr %this1, i32 0, i32 2
  %10 = load double, ptr %newVar, align 8, !tbaa !18
  %call = call noundef double @_ZNKSt8functionIFddEEclEd(ptr noundef nonnull align 8 dereferenceable(32) %f_, double noundef %10)
  %k_3 = getelementptr inbounds nuw %"class.QuantLib::(anonymous namespace)::VariableChange", ptr %this1, i32 0, i32 3
  %11 = load i64, ptr %k_3, align 8, !tbaa !104
  %conv = uitofp i64 %11 to double
  %mul4 = fmul double %call, %conv
  %12 = load double, ptr %temp, align 8, !tbaa !18
  %mul5 = fmul double %mul4, %12
  call void @llvm.lifetime.end.p0(i64 8, ptr %temp) #18
  call void @llvm.lifetime.end.p0(i64 8, ptr %newVar) #18
  ret double %mul5
}

; Function Attrs: inlinehint mustprogress uwtable
define internal noundef double @"_ZZNK8QuantLib18NumericHaganPricer9integrateEddRKNS0_18ConundrumIntegrandEENK3$_0clEd"(ptr noundef nonnull align 8 dereferenceable(8) %this, double noundef %_x) #4 align 2 {
entry:
  %this.addr = alloca ptr, align 8
  %_x.addr = alloca double, align 8
  store ptr %this, ptr %this.addr, align 8, !tbaa !3
  store double %_x, ptr %_x.addr, align 8, !tbaa !18
  %this1 = load ptr, ptr %this.addr, align 8
  %0 = getelementptr inbounds nuw %class.anon, ptr %this1, i32 0, i32 0
  %1 = load ptr, ptr %0, align 8, !tbaa !310
  %2 = load double, ptr %_x.addr, align 8, !tbaa !18
  %call = call noundef double @_ZNK8QuantLib12_GLOBAL__N_114VariableChange5valueEd(ptr noundef nonnull align 8 dereferenceable(56) %1, double noundef %2)
  ret double %call
}

; Function Attrs: mustprogress nounwind uwtable
define linkonce_odr noundef ptr @_ZNKSt9_Any_data9_M_accessEv(ptr noundef nonnull align 8 dereferenceable(16) %this) #1 comdat align 2 {
entry:
  %this.addr = alloca ptr, align 8
  store ptr %this, ptr %this.addr, align 8, !tbaa !3
  %this1 = load ptr, ptr %this.addr, align 8
  %arrayidx = getelementptr inbounds [16 x i8], ptr %this1, i64 0, i64 0
  ret ptr %arrayidx
}

; Function Attrs: mustprogress uwtable
define internal noundef double @"_ZSt13__invoke_implIdRZNK8QuantLib18NumericHaganPricer9integrateEddRKNS1_18ConundrumIntegrandEE3$_0JdEET_St14__invoke_otherOT0_DpOT1_"(ptr noundef nonnull align 8 dereferenceable(8) %__f, ptr noundef nonnull align 8 dereferenceable(8) %__args) #2 {
entry:
  %__f.addr = alloca ptr, align 8
  %__args.addr = alloca ptr, align 8
  store ptr %__f, ptr %__f.addr, align 8, !tbaa !3
  store ptr %__args, ptr %__args.addr, align 8, !tbaa !3
  %0 = load ptr, ptr %__f.addr, align 8, !tbaa !3
  %1 = load ptr, ptr %__args.addr, align 8, !tbaa !3
  %2 = load double, ptr %1, align 8, !tbaa !18
  %call = call noundef double @"_ZZNK8QuantLib18NumericHaganPricer9integrateEddRKNS0_18ConundrumIntegrandEENK3$_0clEd"(ptr noundef nonnull align 8 dereferenceable(8) %0, double noundef %2)
  ret double %call
}

; Function Attrs: mustprogress nounwind uwtable
define internal noundef nonnull align 8 dereferenceable(8) ptr @"_ZNKSt9_Any_data9_M_accessIZNK8QuantLib18NumericHaganPricer9integrateEddRKNS2_18ConundrumIntegrandEE3$_0EERKT_v"(ptr noundef nonnull align 8 dereferenceable(16) %this) #1 align 2 {
entry:
  %this.addr = alloca ptr, align 8
  store ptr %this, ptr %this.addr, align 8, !tbaa !3
  %this1 = load ptr, ptr %this.addr, align 8
  %call = call noundef ptr @_ZNKSt9_Any_data9_M_accessEv(ptr noundef nonnull align 8 dereferenceable(16) %this1) #18
  ret ptr %call
}

; Function Attrs: mustprogress uwtable
define internal noundef double @"_ZSt10__invoke_rIdRZNK8QuantLib18NumericHaganPricer9integrateEddRKNS1_18ConundrumIntegrandEE3$_0JdEENSt9enable_ifIX16is_invocable_r_vIT_T0_DpT1_EES8_E4typeEOS9_DpOSA_"(ptr noundef nonnull align 8 dereferenceable(8) %__fn, ptr noundef nonnull align 8 dereferenceable(8) %__args) #2 {
entry:
  %__fn.addr = alloca ptr, align 8
  %__args.addr = alloca ptr, align 8
  store ptr %__fn, ptr %__fn.addr, align 8, !tbaa !3
  store ptr %__args, ptr %__args.addr, align 8, !tbaa !3
  %0 = load ptr, ptr %__fn.addr, align 8, !tbaa !3
  %1 = load ptr, ptr %__args.addr, align 8, !tbaa !3
  %call = call noundef double @"_ZSt13__invoke_implIdRZNK8QuantLib18NumericHaganPricer9integrateEddRKNS1_18ConundrumIntegrandEE3$_0JdEET_St14__invoke_otherOT0_DpOT1_"(ptr noundef nonnull align 8 dereferenceable(8) %0, ptr noundef nonnull align 8 dereferenceable(8) %1)
  ret double %call
}

; Function Attrs: mustprogress nounwind uwtable
define internal noundef ptr @"_ZNSt14_Function_base13_Base_managerIZNK8QuantLib18NumericHaganPricer9integrateEddRKNS2_18ConundrumIntegrandEE3$_0E14_M_get_pointerERKSt9_Any_data"(ptr noundef nonnull align 8 dereferenceable(16) %__source) #1 align 2 {
entry:
  %__source.addr = alloca ptr, align 8
  %__f = alloca ptr, align 8
  store ptr %__source, ptr %__source.addr, align 8, !tbaa !3
  call void @llvm.lifetime.start.p0(i64 8, ptr %__f) #18
  %0 = load ptr, ptr %__source.addr, align 8, !tbaa !3
  %call = call noundef nonnull align 8 dereferenceable(8) ptr @"_ZNKSt9_Any_data9_M_accessIZNK8QuantLib18NumericHaganPricer9integrateEddRKNS2_18ConundrumIntegrandEE3$_0EERKT_v"(ptr noundef nonnull align 8 dereferenceable(16) %0) #18
  store ptr %call, ptr %__f, align 8, !tbaa !3
  %1 = load ptr, ptr %__f, align 8, !tbaa !3
  call void @llvm.lifetime.end.p0(i64 8, ptr %__f) #18
  ret ptr %1
}

; Function Attrs: mustprogress uwtable
define internal noundef double @"_ZNSt17_Function_handlerIFddEZNK8QuantLib18NumericHaganPricer9integrateEddRKNS2_18ConundrumIntegrandEE3$_0E9_M_invokeERKSt9_Any_dataOd"(ptr noundef nonnull align 8 dereferenceable(16) %__functor, ptr noundef nonnull align 8 dereferenceable(8) %__args) #2 align 2 {
entry:
  %__functor.addr = alloca ptr, align 8
  %__args.addr = alloca ptr, align 8
  store ptr %__functor, ptr %__functor.addr, align 8, !tbaa !3
  store ptr %__args, ptr %__args.addr, align 8, !tbaa !3
  %0 = load ptr, ptr %__functor.addr, align 8, !tbaa !3
  %call = call noundef ptr @"_ZNSt14_Function_base13_Base_managerIZNK8QuantLib18NumericHaganPricer9integrateEddRKNS2_18ConundrumIntegrandEE3$_0E14_M_get_pointerERKSt9_Any_data"(ptr noundef nonnull align 8 dereferenceable(16) %0) #18
  %1 = load ptr, ptr %__args.addr, align 8, !tbaa !3
  %call1 = call noundef double @"_ZSt10__invoke_rIdRZNK8QuantLib18NumericHaganPricer9integrateEddRKNS1_18ConundrumIntegrandEE3$_0JdEENSt9enable_ifIX16is_invocable_r_vIT_T0_DpT1_EES8_E4typeEOS9_DpOSA_"(ptr noundef nonnull align 8 dereferenceable(8) %call, ptr noundef nonnull align 8 dereferenceable(8) %1)
  ret double %call1
}