; Function Attrs: mustprogress uwtable
define internal noundef double @"_ZNSt17_Function_handlerIFddEZNK8QuantLib18NumericHaganPricer9integrateEddRKNS2_18ConundrumIntegrandEE3$_0E9_M_invokeERKSt9_Any_dataOd"(ptr nocapture noundef nonnull readonly align 8 dereferenceable(16) %__functor, ptr nocapture noundef nonnull readonly align 8 dereferenceable(8) %__args) #7 align 2 {
entry:
  %__args.addr.i.i.i.i.i = alloca double, align 8
  %call.val = load ptr, ptr %__functor, align 8, !tbaa !312
  %__args.val = load double, ptr %__args, align 8, !tbaa !240
  %width_.i.i.i.i = getelementptr inbounds nuw i8, ptr %call.val, i64 8
  %0 = load double, ptr %width_.i.i.i.i, align 8, !tbaa !165
  %k_.i.i.i.i = getelementptr inbounds nuw i8, ptr %call.val, i64 48
  %1 = load i64, ptr %k_.i.i.i.i, align 8, !tbaa !166
  %cmp5.i.i.i.i = icmp ugt i64 %1, 1
  br i1 %cmp5.i.i.i.i, label %for.body.i.i.i.i, label %for.cond.cleanup.i.i.i.i

for.cond.cleanup.i.i.i.i:                         ; preds = %for.body.i.i.i.i, %entry
  %temp.0.lcssa.i.i.i.i = phi double [ %0, %entry ], [ %mul.i.i.i.i, %for.body.i.i.i.i ]
  %2 = load double, ptr %call.val, align 8, !tbaa !163
  %3 = tail call double @llvm.fmuladd.f64(double %__args.val, double %temp.0.lcssa.i.i.i.i, double %2)
  call void @llvm.lifetime.start.p0(i64 8, ptr nonnull %__args.addr.i.i.i.i.i)
  store double %3, ptr %__args.addr.i.i.i.i.i, align 8, !tbaa !240
  %_M_manager.i.i.i.i.i.i = getelementptr inbounds nuw i8, ptr %call.val, i64 32
  %4 = load ptr, ptr %_M_manager.i.i.i.i.i.i, align 8, !tbaa !162
  %tobool.not.i.i.i.i.i.i = icmp eq ptr %4, null
  br i1 %tobool.not.i.i.i.i.i.i, label %if.then.i.i.i.i.i, label %"_ZSt10__invoke_rIdRZNK8QuantLib18NumericHaganPricer9integrateEddRKNS1_18ConundrumIntegrandEE3$_0JdEENSt9enable_ifIX16is_invocable_r_vIT_T0_DpT1_EES8_E4typeEOS9_DpOSA_.exit"

if.then.i.i.i.i.i:                                ; preds = %for.cond.cleanup.i.i.i.i
  tail call void @_ZSt25__throw_bad_function_callv() #37
  unreachable

for.body.i.i.i.i:                                 ; preds = %entry, %for.body.i.i.i.i
  %i.07.i.i.i.i = phi i64 [ %inc.i.i.i.i, %for.body.i.i.i.i ], [ 1, %entry ]
  %temp.06.i.i.i.i = phi double [ %mul.i.i.i.i, %for.body.i.i.i.i ], [ %0, %entry ]
  %mul.i.i.i.i = fmul double %__args.val, %temp.06.i.i.i.i
  %inc.i.i.i.i = add nuw i64 %i.07.i.i.i.i, 1
  %exitcond.not.i.i.i.i = icmp eq i64 %inc.i.i.i.i, %1
  br i1 %exitcond.not.i.i.i.i, label %for.cond.cleanup.i.i.i.i, label %for.body.i.i.i.i, !llvm.loop !314

"_ZSt10__invoke_rIdRZNK8QuantLib18NumericHaganPricer9integrateEddRKNS1_18ConundrumIntegrandEE3$_0JdEENSt9enable_ifIX16is_invocable_r_vIT_T0_DpT1_EES8_E4typeEOS9_DpOSA_.exit": ; preds = %for.cond.cleanup.i.i.i.i
  %f_.i.i.i.i = getelementptr inbounds nuw i8, ptr %call.val, i64 16
  %_M_invoker.i.i.i.i.i = getelementptr inbounds nuw i8, ptr %call.val, i64 40
  %5 = load ptr, ptr %_M_invoker.i.i.i.i.i, align 8, !tbaa !159
  %call2.i.i.i.i.i = call noundef double %5(ptr noundef nonnull align 8 dereferenceable(16) %f_.i.i.i.i, ptr noundef nonnull align 8 dereferenceable(8) %__args.addr.i.i.i.i.i)
  call void @llvm.lifetime.end.p0(i64 8, ptr nonnull %__args.addr.i.i.i.i.i)
  %6 = load i64, ptr %k_.i.i.i.i, align 8, !tbaa !166
  %conv.i.i.i.i = uitofp i64 %6 to double
  %mul4.i.i.i.i = fmul double %call2.i.i.i.i.i, %conv.i.i.i.i
  %mul5.i.i.i.i = fmul double %temp.0.lcssa.i.i.i.i, %mul4.i.i.i.i
  ret double %mul5.i.i.i.i
}